; Function Attrs: mustprogress nounwind uwtable
define hidden void @_ZN15G1ServiceThread8run_taskEP13G1ServiceTask(ptr noundef nonnull align 8 dereferenceable(1064) %0, ptr noundef %1) local_unnamed_addr #3 align 2 {
  %3 = alloca %class.ThreadTotalCPUTimeClosure, align 8
  %4 = tail call noundef i64 @_ZN2os15elapsed_counterEv() #15
  %5 = tail call noundef double @_ZN2os12elapsedVTimeEv() #15
  %6 = load volatile ptr, ptr getelementptr inbounds (i8, ptr @_ZN16LogTagSetMappingILN6LogTag4typeE49ELS1_158ELS1_142ELS1_0ELS1_0ELS1_0EE7_tagsetE, i64 56), align 8
  %.not = icmp eq ptr %6, null
  br i1 %.not, label %14, label %7

7:                                                ; preds = %2
  %8 = getelementptr inbounds i8, ptr %1, i64 16
  %9 = load ptr, ptr %8, align 8
  %10 = getelementptr inbounds i8, ptr %1, i64 8
  %11 = load i64, ptr %10, align 8
  %12 = sub nsw i64 %4, %11
  %13 = tail call noundef double @_ZN10TimeHelper17counter_to_millisEl(i64 noundef %12) #15
  tail call void (ptr, ...) @_ZN7LogImplILN6LogTag4typeE49ELS1_158ELS1_142ELS1_0ELS1_0ELS1_0EE5writeILN8LogLevel4typeE2EEEvPKcz(ptr noundef nonnull @.str.20, ptr noundef %9, double noundef %13)
  br label %14

14:                                               ; preds = %2, %7
  %15 = load ptr, ptr %1, align 8
  %16 = load ptr, ptr %15, align 8
  tail call void %16(ptr noundef nonnull align 8 dereferenceable(40) %1) #15
  call void @llvm.lifetime.start.p0(i64 24, ptr nonnull %3)
  %17 = load i8, ptr @UsePerfData, align 1
  %18 = trunc i8 %17 to i1
  br i1 %18, label %19, label %_ZN15G1ServiceThread22update_thread_cpu_timeEv.exit

19:                                               ; preds = %14
  %20 = tail call noundef zeroext i1 @_ZN2os28is_thread_cpu_time_supportedEv() #15
  br i1 %20, label %21, label %_ZN15G1ServiceThread22update_thread_cpu_timeEv.exit

21:                                               ; preds = %19
  store ptr getelementptr inbounds inrange(-16, 8) (i8, ptr @_ZTV25ThreadTotalCPUTimeClosure, i64 16), ptr %3, align 8
  %22 = getelementptr inbounds i8, ptr %3, i64 8
  store i64 0, ptr %22, align 8
  %23 = getelementptr inbounds i8, ptr %3, i64 16
  store i32 4, ptr %23, align 8
  call void @_ZN25ThreadTotalCPUTimeClosure9do_threadEP6Thread(ptr noundef nonnull align 8 dereferenceable(20) %3, ptr noundef nonnull %0) #15
  call void @_ZN25ThreadTotalCPUTimeClosureD1Ev(ptr noundef nonnull align 8 dereferenceable(20) %3) #15
  br label %_ZN15G1ServiceThread22update_thread_cpu_timeEv.exit

_ZN15G1ServiceThread22update_thread_cpu_timeEv.exit: ; preds = %14, %19, %21
  call void @llvm.lifetime.end.p0(i64 24, ptr nonnull %3)
  %24 = load volatile ptr, ptr getelementptr inbounds (i8, ptr @_ZN16LogTagSetMappingILN6LogTag4typeE49ELS1_158ELS1_0ELS1_0ELS1_0ELS1_0EE7_tagsetE, i64 56), align 8
  %.not7 = icmp eq ptr %24, null
  br i1 %.not7, label %34, label %25

25:                                               ; preds = %_ZN15G1ServiceThread22update_thread_cpu_timeEv.exit
  %26 = getelementptr inbounds i8, ptr %1, i64 16
  %27 = load ptr, ptr %26, align 8
  %28 = call noundef i64 @_ZN2os15elapsed_counterEv() #15
  %29 = sub nsw i64 %28, %4
  %30 = call noundef double @_ZN10TimeHelper17counter_to_millisEl(i64 noundef %29) #15
  %31 = call noundef double @_ZN2os12elapsedVTimeEv() #15
  %32 = fsub double %31, %5
  %33 = fmul double %32, 1.000000e+03
  call void (ptr, ...) @_ZN7LogImplILN6LogTag4typeE49ELS1_158ELS1_0ELS1_0ELS1_0ELS1_0EE5writeILN8LogLevel4typeE2EEEvPKcz(ptr noundef nonnull @.str.21, ptr noundef %27, double noundef %30, double noundef %33)
  br label %34

34:                                               ; preds = %_ZN15G1ServiceThread22update_thread_cpu_timeEv.exit, %25
  ret void
}